; Function Attrs: mustprogress nounwind uwtable
define internal void @_ZN12_GLOBAL__N_124ASTUnitPreambleCallbacksD0Ev(ptr noundef nonnull align 8 dereferenceable(592) initializes((0, 8)) %0) unnamed_addr #0 align 2 {
  store ptr getelementptr inbounds nuw inrange(-16, 72) (i8, ptr @_ZTVN12_GLOBAL__N_124ASTUnitPreambleCallbacksE, i64 16), ptr %0, align 8
  %2 = getelementptr inbounds nuw i8, ptr %0, i64 64
  tail call void @_ZN4llvm11SmallVectorIN5clang7ASTUnit20StandaloneDiagnosticELj4EED2Ev(ptr noundef nonnull align 8 dereferenceable(528) %2) #27
  %3 = getelementptr inbounds nuw i8, ptr %0, i64 40
  %4 = load ptr, ptr %3, align 8
  %.not.i.i.i.i = icmp eq ptr %4, null
  br i1 %.not.i.i.i.i, label %_ZNSt6vectorIN5clang11LocalDeclIDESaIS1_EED2Ev.exit.i, label %5

5:                                                ; preds = %1
  %6 = getelementptr inbounds nuw i8, ptr %0, i64 56
  %7 = load ptr, ptr %6, align 8
  %8 = ptrtoint ptr %7 to i64
  %9 = ptrtoint ptr %4 to i64
  %10 = sub i64 %8, %9
  tail call void @_ZdlPvm(ptr noundef nonnull %4, i64 noundef %10) #28
  br label %_ZNSt6vectorIN5clang11LocalDeclIDESaIS1_EED2Ev.exit.i

_ZNSt6vectorIN5clang11LocalDeclIDESaIS1_EED2Ev.exit.i: ; preds = %5, %1
  %11 = getelementptr inbounds nuw i8, ptr %0, i64 16
  %12 = load ptr, ptr %11, align 8
  %.not.i.i.i1.i = icmp eq ptr %12, null
  br i1 %.not.i.i.i1.i, label %_ZN12_GLOBAL__N_124ASTUnitPreambleCallbacksD2Ev.exit, label %13

13:                                               ; preds = %_ZNSt6vectorIN5clang11LocalDeclIDESaIS1_EED2Ev.exit.i
  %14 = getelementptr inbounds nuw i8, ptr %0, i64 32
  %15 = load ptr, ptr %14, align 8
  %16 = ptrtoint ptr %15 to i64
  %17 = ptrtoint ptr %12 to i64
  %18 = sub i64 %16, %17
  tail call void @_ZdlPvm(ptr noundef nonnull %12, i64 noundef %18) #28
  br label %_ZN12_GLOBAL__N_124ASTUnitPreambleCallbacksD2Ev.exit

_ZN12_GLOBAL__N_124ASTUnitPreambleCallbacksD2Ev.exit: ; preds = %_ZNSt6vectorIN5clang11LocalDeclIDESaIS1_EED2Ev.exit.i, %13
  tail call void @_ZdlPvm(ptr noundef nonnull %0, i64 noundef 592) #28
  ret void
}